; ModuleID = '32/1802.c'
source_filename = "32/1802.c"
target datalayout = "e-m:e-p270:32:32-p271:32:32-p272:64:64-i64:64-f80:128-n8:16:32:64-S128"
target triple = "x86_64-pc-linux-gnu"

@.str = private unnamed_addr constant [3 x i8] c"%d\00", align 1
@.str.1 = private unnamed_addr constant [6 x i8] c"%s %s\00", align 1
@.str.2 = private unnamed_addr constant [2 x i8] c"\0A\00", align 1

; Function Attrs: noinline nounwind uwtable
define dso_local i32 @main() #0 {
  %1 = alloca i32, align 4
  %2 = alloca i32, align 4
  %3 = alloca i32, align 4
  %4 = alloca i32, align 4
  %5 = alloca i32, align 4
  %6 = alloca [105 x i32], align 16
  %7 = alloca [105 x i32], align 16
  %8 = alloca [105 x i32], align 16
  %9 = alloca i32, align 4
  %10 = alloca i32, align 4
  %11 = alloca i32, align 4
  %12 = alloca i32, align 4
  %13 = alloca [105 x i8], align 16
  %14 = alloca [105 x i8], align 16
  store i32 0, i32* %1, align 4
  %15 = bitcast [105 x i32]* %6 to i8*
  call void @llvm.memset.p0i8.i64(i8* align 16 %15, i8 0, i64 420, i1 false)
  %16 = bitcast [105 x i32]* %7 to i8*
  call void @llvm.memset.p0i8.i64(i8* align 16 %16, i8 0, i64 420, i1 false)
  %17 = bitcast [105 x i32]* %8 to i8*
  call void @llvm.memset.p0i8.i64(i8* align 16 %17, i8 0, i64 420, i1 false)
  %18 = call i32 (i8*, ...) @__isoc99_scanf(i8* getelementptr inbounds ([3 x i8], [3 x i8]* @.str, i64 0, i64 0), i32* %2)
  store i32 1, i32* %5, align 4
  br label %19

19:                                               ; preds = %164, %0
  %20 = load i32, i32* %5, align 4
  %21 = load i32, i32* %2, align 4
  %22 = icmp sle i32 %20, %21
  br i1 %22, label %23, label %167

23:                                               ; preds = %19
  %24 = getelementptr inbounds [105 x i8], [105 x i8]* %13, i64 0, i64 0
  %25 = getelementptr inbounds [105 x i8], [105 x i8]* %14, i64 0, i64 0
  %26 = call i32 (i8*, ...) @__isoc99_scanf(i8* getelementptr inbounds ([6 x i8], [6 x i8]* @.str.1, i64 0, i64 0), i8* %24, i8* %25)
  %27 = getelementptr inbounds [105 x i8], [105 x i8]* %13, i64 0, i64 0
  %28 = call i64 @strlen(i8* %27) #4
  %29 = trunc i64 %28 to i32
  store i32 %29, i32* %9, align 4
  %30 = getelementptr inbounds [105 x i8], [105 x i8]* %14, i64 0, i64 0
  %31 = call i64 @strlen(i8* %30) #4
  %32 = trunc i64 %31 to i32
  store i32 %32, i32* %10, align 4
  store i32 0, i32* %3, align 4
  br label %33

33:                                               ; preds = %51, %23
  %34 = load i32, i32* %3, align 4
  %35 = load i32, i32* %9, align 4
  %36 = sub nsw i32 %35, 1
  %37 = icmp sle i32 %34, %36
  br i1 %37, label %38, label %54

38:                                               ; preds = %33
  %39 = load i32, i32* %9, align 4
  %40 = load i32, i32* %3, align 4
  %41 = sub nsw i32 %39, %40
  %42 = sub nsw i32 %41, 1
  %43 = sext i32 %42 to i64
  %44 = getelementptr inbounds [105 x i8], [105 x i8]* %13, i64 0, i64 %43
  %45 = load i8, i8* %44, align 1
  %46 = sext i8 %45 to i32
  %47 = sub nsw i32 %46, 48
  %48 = load i32, i32* %3, align 4
  %49 = sext i32 %48 to i64
  %50 = getelementptr inbounds [105 x i32], [105 x i32]* %6, i64 0, i64 %49
  store i32 %47, i32* %50, align 4
  br label %51

51:                                               ; preds = %38
  %52 = load i32, i32* %3, align 4
  %53 = add nsw i32 %52, 1
  store i32 %53, i32* %3, align 4
  br label %33

54:                                               ; preds = %33
  store i32 0, i32* %4, align 4
  br label %55

55:                                               ; preds = %73, %54
  %56 = load i32, i32* %4, align 4
  %57 = load i32, i32* %10, align 4
  %58 = sub nsw i32 %57, 1
  %59 = icmp sle i32 %56, %58
  br i1 %59, label %60, label %76

60:                                               ; preds = %55
  %61 = load i32, i32* %10, align 4
  %62 = load i32, i32* %4, align 4
  %63 = sub nsw i32 %61, %62
  %64 = sub nsw i32 %63, 1
  %65 = sext i32 %64 to i64
  %66 = getelementptr inbounds [105 x i8], [105 x i8]* %14, i64 0, i64 %65
  %67 = load i8, i8* %66, align 1
  %68 = sext i8 %67 to i32
  %69 = sub nsw i32 %68, 48
  %70 = load i32, i32* %4, align 4
  %71 = sext i32 %70 to i64
  %72 = getelementptr inbounds [105 x i32], [105 x i32]* %7, i64 0, i64 %71
  store i32 %69, i32* %72, align 4
  br label %73

73:                                               ; preds = %60
  %74 = load i32, i32* %4, align 4
  %75 = add nsw i32 %74, 1
  store i32 %75, i32* %4, align 4
  br label %55

76:                                               ; preds = %55
  store i32 0, i32* %3, align 4
  br label %77

77:                                               ; preds = %113, %76
  %78 = load i32, i32* %3, align 4
  %79 = load i32, i32* %9, align 4
  %80 = sub nsw i32 %79, 1
  %81 = icmp sle i32 %78, %80
  br i1 %81, label %82, label %116

82:                                               ; preds = %77
  %83 = load i32, i32* %3, align 4
  %84 = sext i32 %83 to i64
  %85 = getelementptr inbounds [105 x i32], [105 x i32]* %6, i64 0, i64 %84
  %86 = load i32, i32* %85, align 4
  %87 = load i32, i32* %3, align 4
  %88 = sext i32 %87 to i64
  %89 = getelementptr inbounds [105 x i32], [105 x i32]* %7, i64 0, i64 %88
  %90 = load i32, i32* %89, align 4
  %91 = sub nsw i32 %86, %90
  %92 = load i32, i32* %3, align 4
  %93 = sext i32 %92 to i64
  %94 = getelementptr inbounds [105 x i32], [105 x i32]* %8, i64 0, i64 %93
  store i32 %91, i32* %94, align 4
  %95 = load i32, i32* %3, align 4
  %96 = sext i32 %95 to i64
  %97 = getelementptr inbounds [105 x i32], [105 x i32]* %8, i64 0, i64 %96
  %98 = load i32, i32* %97, align 4
  %99 = icmp slt i32 %98, 0
  br i1 %99, label %100, label %112

100:                                              ; preds = %82
  %101 = load i32, i32* %3, align 4
  %102 = sext i32 %101 to i64
  %103 = getelementptr inbounds [105 x i32], [105 x i32]* %8, i64 0, i64 %102
  %104 = load i32, i32* %103, align 4
  %105 = add nsw i32 %104, 10
  store i32 %105, i32* %103, align 4
  %106 = load i32, i32* %3, align 4
  %107 = add nsw i32 %106, 1
  %108 = sext i32 %107 to i64
  %109 = getelementptr inbounds [105 x i32], [105 x i32]* %6, i64 0, i64 %108
  %110 = load i32, i32* %109, align 4
  %111 = sub nsw i32 %110, 1
  store i32 %111, i32* %109, align 4
  br label %112

112:                                              ; preds = %100, %82
  br label %113

113:                                              ; preds = %112
  %114 = load i32, i32* %3, align 4
  %115 = add nsw i32 %114, 1
  store i32 %115, i32* %3, align 4
  br label %77

116:                                              ; preds = %77
  br label %117

117:                                              ; preds = %128, %116
  %118 = load i32, i32* %9, align 4
  %119 = sext i32 %118 to i64
  %120 = getelementptr inbounds [105 x i32], [105 x i32]* %8, i64 0, i64 %119
  %121 = load i32, i32* %120, align 4
  %122 = icmp eq i32 %121, 0
  br i1 %122, label %123, label %126

123:                                              ; preds = %117
  %124 = load i32, i32* %9, align 4
  %125 = icmp sgt i32 %124, 0
  br label %126

126:                                              ; preds = %123, %117
  %127 = phi i1 [ false, %117 ], [ %125, %123 ]
  br i1 %127, label %128, label %131

128:                                              ; preds = %126
  %129 = load i32, i32* %9, align 4
  %130 = add nsw i32 %129, -1
  store i32 %130, i32* %9, align 4
  br label %117

131:                                              ; preds = %126
  %132 = load i32, i32* %9, align 4
  store i32 %132, i32* %3, align 4
  br label %133

133:                                              ; preds = %142, %131
  %134 = load i32, i32* %3, align 4
  %135 = icmp sge i32 %134, 0
  br i1 %135, label %136, label %145

136:                                              ; preds = %133
  %137 = load i32, i32* %3, align 4
  %138 = sext i32 %137 to i64
  %139 = getelementptr inbounds [105 x i32], [105 x i32]* %8, i64 0, i64 %138
  %140 = load i32, i32* %139, align 4
  %141 = call i32 (i8*, ...) @printf(i8* getelementptr inbounds ([3 x i8], [3 x i8]* @.str, i64 0, i64 0), i32 %140)
  br label %142

142:                                              ; preds = %136
  %143 = load i32, i32* %3, align 4
  %144 = add nsw i32 %143, -1
  store i32 %144, i32* %3, align 4
  br label %133

145:                                              ; preds = %133
  %146 = call i32 (i8*, ...) @printf(i8* getelementptr inbounds ([2 x i8], [2 x i8]* @.str.2, i64 0, i64 0))
  store i32 0, i32* %3, align 4
  br label %147

147:                                              ; preds = %160, %145
  %148 = load i32, i32* %3, align 4
  %149 = icmp sle i32 %148, 104
  br i1 %149, label %150, label %163

150:                                              ; preds = %147
  %151 = load i32, i32* %3, align 4
  %152 = sext i32 %151 to i64
  %153 = getelementptr inbounds [105 x i32], [105 x i32]* %6, i64 0, i64 %152
  store i32 0, i32* %153, align 4
  %154 = load i32, i32* %3, align 4
  %155 = sext i32 %154 to i64
  %156 = getelementptr inbounds [105 x i32], [105 x i32]* %7, i64 0, i64 %155
  store i32 0, i32* %156, align 4
  %157 = load i32, i32* %3, align 4
  %158 = sext i32 %157 to i64
  %159 = getelementptr inbounds [105 x i32], [105 x i32]* %8, i64 0, i64 %158
  store i32 0, i32* %159, align 4
  br label %160

160:                                              ; preds = %150
  %161 = load i32, i32* %3, align 4
  %162 = add nsw i32 %161, 1
  store i32 %162, i32* %3, align 4
  br label %147

163:                                              ; preds = %147
  br label %164

164:                                              ; preds = %163
  %165 = load i32, i32* %5, align 4
  %166 = add nsw i32 %165, 1
  store i32 %166, i32* %5, align 4
  br label %19

167:                                              ; preds = %19
  ret i32 0
}

; Function Attrs: argmemonly nounwind willreturn
declare void @llvm.memset.p0i8.i64(i8* nocapture writeonly, i8, i64, i1 immarg) #1

declare dso_local i32 @__isoc99_scanf(i8*, ...) #2

; Function Attrs: nounwind readonly
declare dso_local i64 @strlen(i8*) #3

declare dso_local i32 @printf(i8*, ...) #2


!llvm.module.flags = !{!0}
!llvm.ident = !{!1}

!0 = !{i32 1, !"wchar_size", i32 4}
!1 = !{!"clang version 10.0.0-4ubuntu1 "}
